; ModuleID = '45/486.c'
source_filename = "45/486.c"
target datalayout = "e-m:e-p270:32:32-p271:32:32-p272:64:64-i64:64-f80:128-n8:16:32:64-S128"
target triple = "x86_64-pc-linux-gnu"

@.str = private unnamed_addr constant [3 x i8] c"%d\00", align 1

; Function Attrs: noinline nounwind uwtable
define dso_local void @main() #0 {
  %1 = alloca i32, align 4
  %2 = alloca i32, align 4
  %3 = alloca i32, align 4
  %4 = alloca i32, align 4
  %5 = alloca i32, align 4
  %6 = alloca i32, align 4
  %7 = alloca i32, align 4
  %8 = alloca i32, align 4
  %9 = alloca i8, align 1
  %10 = alloca [50 x i8], align 16
  %11 = alloca [50 x i8], align 16
  store i32 0, i32* %5, align 4
  br label %12

12:                                               ; preds = %17, %0
  %13 = call i32 @getchar()
  %14 = trunc i32 %13 to i8
  store i8 %14, i8* %9, align 1
  %15 = sext i8 %14 to i32
  %16 = icmp ne i32 %15, 32
  br i1 %16, label %17, label %24

17:                                               ; preds = %12
  %18 = load i8, i8* %9, align 1
  %19 = load i32, i32* %5, align 4
  %20 = sext i32 %19 to i64
  %21 = getelementptr inbounds [50 x i8], [50 x i8]* %11, i64 0, i64 %20
  store i8 %18, i8* %21, align 1
  %22 = load i32, i32* %5, align 4
  %23 = add nsw i32 %22, 1
  store i32 %23, i32* %5, align 4
  br label %12

24:                                               ; preds = %12
  %25 = load i32, i32* %5, align 4
  store i32 %25, i32* %7, align 4
  store i32 0, i32* %4, align 4
  br label %26

26:                                               ; preds = %31, %24
  %27 = call i32 @getchar()
  %28 = trunc i32 %27 to i8
  store i8 %28, i8* %9, align 1
  %29 = sext i8 %28 to i32
  %30 = icmp ne i32 %29, 10
  br i1 %30, label %31, label %38

31:                                               ; preds = %26
  %32 = load i8, i8* %9, align 1
  %33 = load i32, i32* %4, align 4
  %34 = sext i32 %33 to i64
  %35 = getelementptr inbounds [50 x i8], [50 x i8]* %10, i64 0, i64 %34
  store i8 %32, i8* %35, align 1
  %36 = load i32, i32* %4, align 4
  %37 = add nsw i32 %36, 1
  store i32 %37, i32* %4, align 4
  br label %26

38:                                               ; preds = %26
  %39 = load i32, i32* %4, align 4
  store i32 %39, i32* %6, align 4
  %40 = load i32, i32* %6, align 4
  store i32 %40, i32* %2, align 4
  br label %41

41:                                               ; preds = %87, %38
  %42 = load i32, i32* %2, align 4
  %43 = icmp sge i32 %42, 1
  br i1 %43, label %44, label %90

44:                                               ; preds = %41
  %45 = load i32, i32* %2, align 4
  %46 = sext i32 %45 to i64
  %47 = getelementptr inbounds [50 x i8], [50 x i8]* %10, i64 0, i64 %46
  %48 = load i8, i8* %47, align 1
  %49 = sext i8 %48 to i32
  %50 = getelementptr inbounds [50 x i8], [50 x i8]* %11, i64 0, i64 0
  %51 = load i8, i8* %50, align 16
  %52 = sext i8 %51 to i32
  %53 = icmp eq i32 %49, %52
  br i1 %53, label %54, label %86

54:                                               ; preds = %44
  store i32 1, i32* %1, align 4
  store i32 0, i32* %3, align 4
  br label %55

55:                                               ; preds = %77, %54
  %56 = load i32, i32* %3, align 4
  %57 = load i32, i32* %7, align 4
  %58 = icmp slt i32 %56, %57
  br i1 %58, label %59, label %80

59:                                               ; preds = %55
  %60 = load i32, i32* %2, align 4
  %61 = load i32, i32* %3, align 4
  %62 = add nsw i32 %60, %61
  %63 = sext i32 %62 to i64
  %64 = getelementptr inbounds [50 x i8], [50 x i8]* %10, i64 0, i64 %63
  %65 = load i8, i8* %64, align 1
  %66 = sext i8 %65 to i32
  %67 = load i32, i32* %3, align 4
  %68 = sext i32 %67 to i64
  %69 = getelementptr inbounds [50 x i8], [50 x i8]* %11, i64 0, i64 %68
  %70 = load i8, i8* %69, align 1
  %71 = sext i8 %70 to i32
  %72 = icmp ne i32 %66, %71
  br i1 %72, label %73, label %74

73:                                               ; preds = %59
  store i32 0, i32* %1, align 4
  br label %76

74:                                               ; preds = %59
  %75 = load i32, i32* %1, align 4
  store i32 %75, i32* %1, align 4
  br label %76

76:                                               ; preds = %74, %73
  br label %77

77:                                               ; preds = %76
  %78 = load i32, i32* %3, align 4
  %79 = add nsw i32 %78, 1
  store i32 %79, i32* %3, align 4
  br label %55

80:                                               ; preds = %55
  %81 = load i32, i32* %1, align 4
  %82 = icmp eq i32 %81, 1
  br i1 %82, label %83, label %85

83:                                               ; preds = %80
  %84 = load i32, i32* %2, align 4
  store i32 %84, i32* %8, align 4
  br label %85

85:                                               ; preds = %83, %80
  br label %86

86:                                               ; preds = %85, %44
  br label %87

87:                                               ; preds = %86
  %88 = load i32, i32* %2, align 4
  %89 = add nsw i32 %88, -1
  store i32 %89, i32* %2, align 4
  br label %41

90:                                               ; preds = %41
  %91 = load i32, i32* %8, align 4
  %92 = call i32 (i8*, ...) @printf(i8* getelementptr inbounds ([3 x i8], [3 x i8]* @.str, i64 0, i64 0), i32 %91)
  ret void
}

declare dso_local i32 @getchar() #1

declare dso_local i32 @printf(i8*, ...) #1


!llvm.module.flags = !{!0}
!llvm.ident = !{!1}

!0 = !{i32 1, !"wchar_size", i32 4}
!1 = !{!"clang version 10.0.0-4ubuntu1 "}
